; Function Attrs: mustprogress uwtable
define hidden noundef zeroext i1 @_ZN6Assimp11ASEImporter15GenerateNormalsERNS_3ASE4MeshE(ptr nocapture noundef nonnull readonly align 8 dereferenceable(98) %this, ptr noundef nonnull align 8 dereferenceable(717) %mesh) local_unnamed_addr #2 align 2 {
entry:
  %mNormals = getelementptr inbounds i8, ptr %mesh, i64 48
  %0 = load ptr, ptr %mNormals, align 8
  %_M_finish.i.i = getelementptr inbounds i8, ptr %mesh, i64 56
  %1 = load ptr, ptr %_M_finish.i.i, align 8
  %cmp.i.i = icmp eq ptr %0, %1
  br i1 %cmp.i.i, label %if.end18, label %land.lhs.true

land.lhs.true:                                    ; preds = %entry
  %configRecomputeNormals = getelementptr inbounds i8, ptr %this, i64 96
  %2 = load i8, ptr %configRecomputeNormals, align 8
  %3 = and i8 %2, 1
  %tobool.not.not = icmp eq i8 %3, 0
  br i1 %tobool.not.not, label %for.body, label %if.end18

for.cond:                                         ; preds = %lor.lhs.false13
  %incdec.ptr.i = getelementptr inbounds i8, ptr %qq.sroa.0.09, i64 12
  %cmp.i.not = icmp eq ptr %incdec.ptr.i, %1
  br i1 %cmp.i.not, label %if.end18, label %for.body, !llvm.loop !4

for.body:                                         ; preds = %land.lhs.true, %for.cond
  %qq.sroa.0.09 = phi ptr [ %incdec.ptr.i, %for.cond ], [ %0, %land.lhs.true ]
  %4 = load float, ptr %qq.sroa.0.09, align 4
  %tobool10 = fcmp une float %4, 0.000000e+00
  br i1 %tobool10, label %return, label %lor.lhs.false

lor.lhs.false:                                    ; preds = %for.body
  %y = getelementptr inbounds i8, ptr %qq.sroa.0.09, i64 4
  %5 = load float, ptr %y, align 4
  %tobool12 = fcmp une float %5, 0.000000e+00
  br i1 %tobool12, label %return, label %lor.lhs.false13

lor.lhs.false13:                                  ; preds = %lor.lhs.false
  %z = getelementptr inbounds i8, ptr %qq.sroa.0.09, i64 8
  %6 = load float, ptr %z, align 4
  %tobool15 = fcmp une float %6, 0.000000e+00
  br i1 %tobool15, label %return, label %for.cond

if.end18:                                         ; preds = %for.cond, %land.lhs.true, %entry
  tail call void @_Z34ComputeNormalsWithSmoothingsGroupsIN6Assimp3ASE4FaceEEvR23MeshWithSmoothingGroupsIT_E(ptr noundef nonnull align 8 dereferenceable(72) %mesh)
  br label %return

return:                                           ; preds = %for.body, %lor.lhs.false, %lor.lhs.false13, %if.end18
  %retval.0 = phi i1 [ false, %if.end18 ], [ true, %lor.lhs.false13 ], [ true, %lor.lhs.false ], [ true, %for.body ]
  ret i1 %retval.0
}